; Function Attrs: nounwind uwtable
define i32 @DeriveEarlySecret(ptr noundef readonly captures(address_is_null) %0) local_unnamed_addr #0 {
  %2 = icmp eq ptr %0, null
  br i1 %2, label %15, label %3

3:                                                ; preds = %1
  %4 = getelementptr inbounds nuw i8, ptr %0, i64 24
  %5 = load ptr, ptr %4, align 8, !tbaa !45
  %6 = icmp eq ptr %5, null
  br i1 %6, label %15, label %7

7:                                                ; preds = %3
  %8 = getelementptr inbounds nuw i8, ptr %5, i64 125
  %9 = getelementptr inbounds nuw i8, ptr %5, i64 173
  %10 = getelementptr inbounds nuw i8, ptr %0, i64 724
  %11 = load i8, ptr %10, align 2, !tbaa !46
  %switch.selectcmp.i = icmp eq i8 %11, 5
  %switch.select.i = select i1 %switch.selectcmp.i, i32 7, i32 0
  %switch.selectcmp2.i = icmp eq i8 %11, 4
  %switch.select3.i = select i1 %switch.selectcmp2.i, i32 6, i32 %switch.select.i
  %12 = getelementptr i8, ptr %0, i64 176
  %.val = load ptr, ptr %12, align 16, !tbaa !43
  %13 = getelementptr i8, ptr %0, i64 1204
  %.val9 = load i32, ptr %13, align 4, !tbaa !44
  %14 = tail call i32 @wc_Tls13_HKDF_Extract_ex(ptr noundef nonnull %8, ptr noundef null, i32 noundef 0, ptr noundef nonnull %9, i32 noundef 0, i32 noundef range(i32 0, 8) %switch.select3.i, ptr noundef %.val, i32 noundef %.val9) #11
  br label %15

15:                                               ; preds = %1, %3, %7
  %.0 = phi i32 [ %14, %7 ], [ -173, %3 ], [ -173, %1 ]
  ret i32 %.0
}